target datalayout = "e-m:e-p270:32:32-p271:32:32-p272:64:64-i64:64-i128:128-f80:128-n8:16:32:64-S128"
target triple = "x86_64-unknown-linux-gnu"

%struct.Argument_DataFormat = type { i32, i32 }

@.str.105 = private unnamed_addr constant [18 x i8] c"binary-headerless\00", align 1
@.str.106 = private unnamed_addr constant [7 x i8] c"binary\00", align 1
@.str.107 = private unnamed_addr constant [5 x i8] c"text\00", align 1

; Function Attrs: nounwind sspstrong uwtable
define internal i32 @parse_data_format(ptr noundef %in, ptr noundef %out) #0 {
entry:
  %retval = alloca i32, align 4
  %in.addr = alloca ptr, align 8
  %out.addr = alloca ptr, align 8
  store ptr %in, ptr %in.addr, align 8
  store ptr %out, ptr %out.addr, align 8
  %0 = load ptr, ptr %in.addr, align 8
  %call = call i32 @strcmp(ptr noundef %0, ptr noundef @.str.105) #9
  %cmp = icmp eq i32 0, %call
  br i1 %cmp, label %if.then, label %if.else

if.then:                                          ; preds = %entry
  %1 = load ptr, ptr %out.addr, align 8
  %is_binary = getelementptr inbounds %struct.Argument_DataFormat, ptr %1, i32 0, i32 0
  store i32 0, ptr %is_binary, align 4
  %2 = load ptr, ptr %out.addr, align 8
  %is_headerless = getelementptr inbounds %struct.Argument_DataFormat, ptr %2, i32 0, i32 1
  store i32 1, ptr %is_headerless, align 4
  br label %if.end14

if.else:                                          ; preds = %entry
  %3 = load ptr, ptr %in.addr, align 8
  %call1 = call i32 @strcmp(ptr noundef %3, ptr noundef @.str.106) #9
  %cmp2 = icmp eq i32 0, %call1
  br i1 %cmp2, label %if.then3, label %if.else6

if.then3:                                         ; preds = %if.else
  %4 = load ptr, ptr %out.addr, align 8
  %is_binary4 = getelementptr inbounds %struct.Argument_DataFormat, ptr %4, i32 0, i32 0
  store i32 1, ptr %is_binary4, align 4
  %5 = load ptr, ptr %out.addr, align 8
  %is_headerless5 = getelementptr inbounds %struct.Argument_DataFormat, ptr %5, i32 0, i32 1
  store i32 0, ptr %is_headerless5, align 4
  br label %if.end13

if.else6:                                         ; preds = %if.else
  %6 = load ptr, ptr %in.addr, align 8
  %call7 = call i32 @strcmp(ptr noundef %6, ptr noundef @.str.107) #9
  %cmp8 = icmp eq i32 0, %call7
  br i1 %cmp8, label %if.then9, label %if.else12

if.then9:                                         ; preds = %if.else6
  %7 = load ptr, ptr %out.addr, align 8
  %is_binary10 = getelementptr inbounds %struct.Argument_DataFormat, ptr %7, i32 0, i32 0
  store i32 0, ptr %is_binary10, align 4
  %8 = load ptr, ptr %out.addr, align 8
  %is_headerless11 = getelementptr inbounds %struct.Argument_DataFormat, ptr %8, i32 0, i32 1
  store i32 0, ptr %is_headerless11, align 4
  br label %if.end

if.else12:                                        ; preds = %if.else6
  store i32 0, ptr %retval, align 4
  br label %return

if.end:                                           ; preds = %if.then9
  br label %if.end13

if.end13:                                         ; preds = %if.end, %if.then3
  br label %if.end14

if.end14:                                         ; preds = %if.end13, %if.then
  store i32 1, ptr %retval, align 4
  br label %return

return:                                           ; preds = %if.end14, %if.else12
  %9 = load i32, ptr %retval, align 4
  ret i32 %9
}