; Function Attrs: mustprogress nofree nounwind sspstrong willreturn memory(argmem: readwrite) uwtable
define internal fastcc range(i32 0, 2) i32 @parse_data_format(ptr noundef readonly captures(none) %in, ptr noundef writeonly captures(none) %out) unnamed_addr #8 {
entry:
  %call = tail call i32 @strcmp(ptr noundef nonnull dereferenceable(1) %in, ptr noundef nonnull dereferenceable(18) @.str.105) #21
  %cmp = icmp eq i32 %call, 0
  br i1 %cmp, label %return.sink.split, label %if.else

if.else:                                          ; preds = %entry
  %call1 = tail call i32 @strcmp(ptr noundef nonnull dereferenceable(1) %in, ptr noundef nonnull dereferenceable(7) @.str.106) #21
  %cmp2 = icmp eq i32 %call1, 0
  br i1 %cmp2, label %return.sink.split, label %if.else6

if.else6:                                         ; preds = %if.else
  %call7 = tail call i32 @strcmp(ptr noundef nonnull dereferenceable(1) %in, ptr noundef nonnull dereferenceable(5) @.str.107) #21
  %cmp8 = icmp eq i32 %call7, 0
  br i1 %cmp8, label %return.sink.split, label %return

return.sink.split:                                ; preds = %if.else6, %if.else, %entry
  %.sink8 = phi i32 [ 0, %entry ], [ 1, %if.else ], [ 0, %if.else6 ]
  %.sink = phi i32 [ 1, %entry ], [ 0, %if.else ], [ 0, %if.else6 ]
  store i32 %.sink8, ptr %out, align 4
  %is_headerless = getelementptr inbounds nuw i8, ptr %out, i64 4
  store i32 %.sink, ptr %is_headerless, align 4
  br label %return

return:                                           ; preds = %return.sink.split, %if.else6
  %retval.0 = phi i32 [ 0, %if.else6 ], [ 1, %return.sink.split ]
  ret i32 %retval.0
}